#include <math.h>
#include <stdio.h>
#include <stdlib.h>
#include <string.h>

int main(){
int x,y,n,k,i=0,m=0;
int sz[100000];
scanf("%d%d\n",&n,&k);
for(i=0;i<=n-1;i++){
scanf("%d",&sz[i]);}
for(i=0;i<=n-2;i++){
for(x=i;x<=n-2;x++){
y=sz[i]+sz[x+1];
if(y==k){
m++;}
}}
if(m!=0){
printf("yes");
}
else if(m==0){
    printf("no");
}
return 0;
}